; Function Attrs: mustprogress uwtable
define hidden void @_ZN7tseitin14theory_checker6clauseEP3app(ptr noalias sret(%class.ref_vector) align 8 %agg.result, ptr nocapture noundef nonnull readonly align 8 dereferenceable(304) %this, ptr nocapture noundef readonly %jst) unnamed_addr #3 align 2 personality ptr @__gxx_personality_v0 {
entry:
  %m = getelementptr inbounds i8, ptr %this, i64 8
  %0 = load ptr, ptr %m, align 8
  %1 = ptrtoint ptr %0 to i64
  store i64 %1, ptr %agg.result, align 8
  %m_nodes.i.i = getelementptr inbounds i8, ptr %agg.result, i64 8
  store ptr null, ptr %m_nodes.i.i, align 8
  %m_num_args.i = getelementptr inbounds i8, ptr %jst, i64 24
  %2 = load i32, ptr %m_num_args.i, align 8
  %m_args.i = getelementptr inbounds i8, ptr %jst, i64 32
  %cmp3.not.i = icmp eq i32 %2, 0
  br i1 %cmp3.not.i, label %nrvo.skipdtor, label %for.body.lr.ph.i

for.body.lr.ph.i:                                 ; preds = %entry
  %wide.trip.count.i = zext i32 %2 to i64
  br label %for.body.i

for.body.i:                                       ; preds = %_ZN15ref_vector_coreI4expr19ref_manager_wrapperIS0_11ast_managerEE9push_backEPS0_.exit.i, %for.body.lr.ph.i
  %indvars.iv.i = phi i64 [ 0, %for.body.lr.ph.i ], [ %indvars.iv.next.i, %_ZN15ref_vector_coreI4expr19ref_manager_wrapperIS0_11ast_managerEE9push_backEPS0_.exit.i ]
  %arrayidx.i = getelementptr inbounds ptr, ptr %m_args.i, i64 %indvars.iv.i
  %3 = load ptr, ptr %arrayidx.i, align 8
  %tobool.not.i.i.i.i.i = icmp eq ptr %3, null
  br i1 %tobool.not.i.i.i.i.i, label %_ZN15ref_vector_coreI4expr19ref_manager_wrapperIS0_11ast_managerEE7inc_refEPS0_.exit.i.i, label %if.then.i.i.i.i.i

if.then.i.i.i.i.i:                                ; preds = %for.body.i
  %m_ref_count.i.i.i.i.i.i = getelementptr inbounds i8, ptr %3, i64 8
  %4 = load i32, ptr %m_ref_count.i.i.i.i.i.i, align 4
  %inc.i.i.i.i.i.i = add i32 %4, 1
  store i32 %inc.i.i.i.i.i.i, ptr %m_ref_count.i.i.i.i.i.i, align 4
  br label %_ZN15ref_vector_coreI4expr19ref_manager_wrapperIS0_11ast_managerEE7inc_refEPS0_.exit.i.i

_ZN15ref_vector_coreI4expr19ref_manager_wrapperIS0_11ast_managerEE7inc_refEPS0_.exit.i.i: ; preds = %if.then.i.i.i.i.i, %for.body.i
  %5 = load ptr, ptr %m_nodes.i.i, align 8
  %cmp.i.i.i = icmp eq ptr %5, null
  br i1 %cmp.i.i.i, label %if.then.i.i.i, label %lor.lhs.false.i.i.i

lor.lhs.false.i.i.i:                              ; preds = %_ZN15ref_vector_coreI4expr19ref_manager_wrapperIS0_11ast_managerEE7inc_refEPS0_.exit.i.i
  %arrayidx.i.i.i = getelementptr inbounds i8, ptr %5, i64 -4
  %6 = load i32, ptr %arrayidx.i.i.i, align 4
  %arrayidx4.i.i.i = getelementptr inbounds i8, ptr %5, i64 -8
  %7 = load i32, ptr %arrayidx4.i.i.i, align 4
  %cmp5.i.i.i = icmp eq i32 %6, %7
  br i1 %cmp5.i.i.i, label %if.then.i.i.i, label %_ZN15ref_vector_coreI4expr19ref_manager_wrapperIS0_11ast_managerEE9push_backEPS0_.exit.i

if.then.i.i.i:                                    ; preds = %lor.lhs.false.i.i.i, %_ZN15ref_vector_coreI4expr19ref_manager_wrapperIS0_11ast_managerEE7inc_refEPS0_.exit.i.i
  invoke void @_ZN6vectorIP4exprLb0EjE13expand_vectorEv(ptr noundef nonnull align 8 dereferenceable(8) %m_nodes.i.i)
          to label %.noexc unwind label %lpad

.noexc:                                           ; preds = %if.then.i.i.i
  %.pre.i.i.i = load ptr, ptr %m_nodes.i.i, align 8
  %arrayidx8.phi.trans.insert.i.i.i = getelementptr inbounds i8, ptr %.pre.i.i.i, i64 -4
  %.pre1.i.i.i = load i32, ptr %arrayidx8.phi.trans.insert.i.i.i, align 4
  br label %_ZN15ref_vector_coreI4expr19ref_manager_wrapperIS0_11ast_managerEE9push_backEPS0_.exit.i

_ZN15ref_vector_coreI4expr19ref_manager_wrapperIS0_11ast_managerEE9push_backEPS0_.exit.i: ; preds = %.noexc, %lor.lhs.false.i.i.i
  %8 = phi i32 [ %.pre1.i.i.i, %.noexc ], [ %6, %lor.lhs.false.i.i.i ]
  %9 = phi ptr [ %.pre.i.i.i, %.noexc ], [ %5, %lor.lhs.false.i.i.i ]
  %idx.ext.i.i.i = zext i32 %8 to i64
  %add.ptr.i.i.i = getelementptr inbounds ptr, ptr %9, i64 %idx.ext.i.i.i
  store ptr %3, ptr %add.ptr.i.i.i, align 8
  %10 = load ptr, ptr %m_nodes.i.i, align 8
  %arrayidx10.i.i.i = getelementptr inbounds i8, ptr %10, i64 -4
  %11 = load i32, ptr %arrayidx10.i.i.i, align 4
  %inc.i.i.i = add i32 %11, 1
  store i32 %inc.i.i.i, ptr %arrayidx10.i.i.i, align 4
  %indvars.iv.next.i = add nuw nsw i64 %indvars.iv.i, 1
  %exitcond.not.i = icmp eq i64 %indvars.iv.next.i, %wide.trip.count.i
  br i1 %exitcond.not.i, label %nrvo.skipdtor, label %for.body.i, !llvm.loop !4

lpad:                                             ; preds = %if.then.i.i.i
  %12 = landingpad { ptr, i32 }
          cleanup
  tail call void @_ZN10ref_vectorI4expr11ast_managerED2Ev(ptr noundef nonnull align 8 dereferenceable(16) %agg.result) #12
  resume { ptr, i32 } %12

nrvo.skipdtor:                                    ; preds = %_ZN15ref_vector_coreI4expr19ref_manager_wrapperIS0_11ast_managerEE9push_backEPS0_.exit.i, %entry
  ret void
}